; Function Attrs: mustprogress uwtable
define { i64, i64 } @_ZN2cv18getWindowImageRectERKNSt7__cxx1112basic_stringIcSt11char_traitsIcESaIcEEE(ptr noundef nonnull align 8 dereferenceable(32) %0) local_unnamed_addr #3 personality ptr @__gxx_personality_v0 {
  %2 = alloca %"class.cv::utils::trace::details::Region", align 8
  %3 = alloca %"class.std::__cxx11::basic_string", align 8
  %4 = alloca %"class.std::allocator", align 1
  %5 = alloca %"class.std::shared_ptr", align 8
  call void @_ZN2cv5utils5trace7details6RegionC1ERKNS3_21LocationStaticStorageE(ptr noundef nonnull align 8 dereferenceable(12) %2, ptr noundef nonnull align 8 dereferenceable(32) @_ZZN2cv18getWindowImageRectERKNSt7__cxx1112basic_stringIcSt11char_traitsIcESaIcEEEE25__cv_trace_location_fn406)
  %6 = call noundef zeroext i1 @_ZNKSt7__cxx1112basic_stringIcSt11char_traitsIcESaIcEE5emptyEv(ptr noundef nonnull align 8 dereferenceable(32) %0) #20
  br i1 %6, label %7, label %15

7:                                                ; preds = %1
  call void @_ZNSaIcEC1Ev(ptr noundef nonnull align 1 dereferenceable(1) %4) #20
  invoke void @_ZNSt7__cxx1112basic_stringIcSt11char_traitsIcESaIcEEC1EPKcRKS3_(ptr noundef nonnull align 8 dereferenceable(32) %3, ptr noundef nonnull @.str.5, ptr noundef nonnull align 1 dereferenceable(1) %4)
          to label %8 unwind label %10

8:                                                ; preds = %7
  invoke void @_ZN2cv5errorEiRKNSt7__cxx1112basic_stringIcSt11char_traitsIcESaIcEEEPKcS9_i(i32 noundef -215, ptr noundef nonnull align 8 dereferenceable(32) %3, ptr noundef nonnull @__func__._ZN2cv18getWindowImageRectERKNSt7__cxx1112basic_stringIcSt11char_traitsIcESaIcEEE, ptr noundef nonnull @.str.1, i32 noundef 407) #22
          to label %9 unwind label %12

9:                                                ; preds = %8
  unreachable

10:                                               ; preds = %7
  %11 = landingpad { ptr, i32 }
          cleanup
  br label %14

12:                                               ; preds = %8
  %13 = landingpad { ptr, i32 }
          cleanup
  call void @_ZNSt7__cxx1112basic_stringIcSt11char_traitsIcESaIcEED1Ev(ptr noundef nonnull align 8 dereferenceable(32) %3) #20
  br label %14

14:                                               ; preds = %12, %10
  %.pn = phi { ptr, i32 } [ %13, %12 ], [ %11, %10 ]
  call void @_ZNSaIcED1Ev(ptr noundef nonnull align 1 dereferenceable(1) %4) #20
  br label %80

15:                                               ; preds = %1
  invoke fastcc void @_ZN2cv4implL11findWindow_ERKNSt7__cxx1112basic_stringIcSt11char_traitsIcESaIcEEE(ptr dead_on_unwind noalias nonnull writable align 8 %5, ptr noundef nonnull align 8 dereferenceable(32) %0)
          to label %16 unwind label %26

16:                                               ; preds = %15
  %17 = load ptr, ptr %5, align 8
  %.not = icmp eq ptr %17, null
  br i1 %.not, label %30, label %18

18:                                               ; preds = %16
  %19 = load ptr, ptr %17, align 8
  %20 = getelementptr inbounds i8, ptr %19, i64 80
  %21 = load ptr, ptr %20, align 8
  %22 = invoke { i64, i64 } %21(ptr noundef nonnull align 8 dereferenceable(8) %17)
          to label %23 unwind label %28

23:                                               ; preds = %18
  %24 = extractvalue { i64, i64 } %22, 0
  %25 = extractvalue { i64, i64 } %22, 1
  br label %30

26:                                               ; preds = %67, %15
  %27 = landingpad { ptr, i32 }
          cleanup
  br label %80

28:                                               ; preds = %18
  %29 = landingpad { ptr, i32 }
          cleanup
  call void @_ZNSt10shared_ptrIN2cv15highgui_backend8UIWindowEED2Ev(ptr noundef nonnull align 8 dereferenceable(16) %5) #20
  br label %80

30:                                               ; preds = %16, %23
  %.sroa.0.0 = phi i64 [ %24, %23 ], [ undef, %16 ]
  %.sroa.3.0 = phi i64 [ %25, %23 ], [ undef, %16 ]
  %31 = getelementptr inbounds i8, ptr %5, i64 8
  %32 = load ptr, ptr %31, align 8
  %.not.i.i.i = icmp eq ptr %32, null
  br i1 %.not.i.i.i, label %_ZNSt10shared_ptrIN2cv15highgui_backend8UIWindowEED2Ev.exit, label %33

33:                                               ; preds = %30
  %34 = getelementptr inbounds i8, ptr %32, i64 8
  %35 = load atomic i64, ptr %34 acquire, align 8
  %36 = icmp eq i64 %35, 4294967297
  %37 = trunc i64 %35 to i32
  br i1 %36, label %38, label %43

38:                                               ; preds = %33
  store i32 0, ptr %34, align 8
  %39 = getelementptr inbounds i8, ptr %32, i64 12
  store i32 0, ptr %39, align 4
  %40 = load ptr, ptr %32, align 8
  %41 = getelementptr inbounds i8, ptr %40, i64 16
  %42 = load ptr, ptr %41, align 8
  call void %42(ptr noundef nonnull align 8 dereferenceable(16) %32) #20
  br label %_ZNSt16_Sp_counted_baseILN9__gnu_cxx12_Lock_policyE2EE24_M_release_last_use_coldEv.exit.sink.split.i.i.i.i

43:                                               ; preds = %33
  %44 = load i8, ptr @__libc_single_threaded, align 1
  %.not.i.i.i.i = icmp eq i8 %44, 0
  br i1 %.not.i.i.i.i, label %47, label %45

45:                                               ; preds = %43
  %46 = add nsw i32 %37, -1
  store i32 %46, ptr %34, align 4
  br label %49

47:                                               ; preds = %43
  %48 = atomicrmw volatile add ptr %34, i32 -1 acq_rel, align 4
  br label %49

49:                                               ; preds = %47, %45
  %.0.i.i.i.i = phi i32 [ %37, %45 ], [ %48, %47 ]
  %50 = icmp eq i32 %.0.i.i.i.i, 1
  br i1 %50, label %51, label %_ZNSt10shared_ptrIN2cv15highgui_backend8UIWindowEED2Ev.exit

51:                                               ; preds = %49
  %52 = load ptr, ptr %32, align 8
  %53 = getelementptr inbounds i8, ptr %52, i64 16
  %54 = load ptr, ptr %53, align 8
  call void %54(ptr noundef nonnull align 8 dereferenceable(16) %32) #20
  %55 = getelementptr inbounds i8, ptr %32, i64 12
  %56 = load i8, ptr @__libc_single_threaded, align 1
  %.not.i.i.i.i.i.i = icmp eq i8 %56, 0
  br i1 %.not.i.i.i.i.i.i, label %60, label %57

57:                                               ; preds = %51
  %58 = load i32, ptr %55, align 4
  %59 = add nsw i32 %58, -1
  store i32 %59, ptr %55, align 4
  br label %62

60:                                               ; preds = %51
  %61 = atomicrmw volatile add ptr %55, i32 -1 acq_rel, align 4
  br label %62

62:                                               ; preds = %60, %57
  %.0.i.i.i.i.i.i = phi i32 [ %58, %57 ], [ %61, %60 ]
  %63 = icmp eq i32 %.0.i.i.i.i.i.i, 1
  br i1 %63, label %_ZNSt16_Sp_counted_baseILN9__gnu_cxx12_Lock_policyE2EE24_M_release_last_use_coldEv.exit.sink.split.i.i.i.i, label %_ZNSt10shared_ptrIN2cv15highgui_backend8UIWindowEED2Ev.exit

_ZNSt16_Sp_counted_baseILN9__gnu_cxx12_Lock_policyE2EE24_M_release_last_use_coldEv.exit.sink.split.i.i.i.i: ; preds = %62, %38
  %64 = load ptr, ptr %32, align 8
  %65 = getelementptr inbounds i8, ptr %64, i64 24
  %66 = load ptr, ptr %65, align 8
  call void %66(ptr noundef nonnull align 8 dereferenceable(16) %32) #20
  br label %_ZNSt10shared_ptrIN2cv15highgui_backend8UIWindowEED2Ev.exit

_ZNSt10shared_ptrIN2cv15highgui_backend8UIWindowEED2Ev.exit: ; preds = %30, %49, %62, %_ZNSt16_Sp_counted_baseILN9__gnu_cxx12_Lock_policyE2EE24_M_release_last_use_coldEv.exit.sink.split.i.i.i.i
  br i1 %.not, label %67, label %73

67:                                               ; preds = %_ZNSt10shared_ptrIN2cv15highgui_backend8UIWindowEED2Ev.exit
  %68 = call noundef ptr @_ZNKSt7__cxx1112basic_stringIcSt11char_traitsIcESaIcEE5c_strEv(ptr noundef nonnull align 8 dereferenceable(32) %0) #20
  %69 = invoke { i64, i64 } @_Z19cvGetWindowRect_GTKPKc(ptr noundef %68)
          to label %70 unwind label %26

70:                                               ; preds = %67
  %71 = extractvalue { i64, i64 } %69, 0
  %72 = extractvalue { i64, i64 } %69, 1
  br label %73

73:                                               ; preds = %_ZNSt10shared_ptrIN2cv15highgui_backend8UIWindowEED2Ev.exit, %70
  %.sroa.0.1 = phi i64 [ %71, %70 ], [ %.sroa.0.0, %_ZNSt10shared_ptrIN2cv15highgui_backend8UIWindowEED2Ev.exit ]
  %.sroa.3.1 = phi i64 [ %72, %70 ], [ %.sroa.3.0, %_ZNSt10shared_ptrIN2cv15highgui_backend8UIWindowEED2Ev.exit ]
  %74 = getelementptr inbounds i8, ptr %2, i64 8
  %75 = load i32, ptr %74, align 8
  %.not.i = icmp eq i32 %75, 0
  br i1 %.not.i, label %_ZN2cv5utils5trace7details6RegionD2Ev.exit, label %76

76:                                               ; preds = %73
  invoke void @_ZN2cv5utils5trace7details6Region7destroyEv(ptr noundef nonnull align 8 dereferenceable(12) %2)
          to label %_ZN2cv5utils5trace7details6RegionD2Ev.exit unwind label %77

77:                                               ; preds = %76
  %78 = landingpad { ptr, i32 }
          catch ptr null
  %79 = extractvalue { ptr, i32 } %78, 0
  call void @__clang_call_terminate(ptr %79) #23
  unreachable

_ZN2cv5utils5trace7details6RegionD2Ev.exit:       ; preds = %73, %76
  %.fca.0.insert = insertvalue { i64, i64 } poison, i64 %.sroa.0.1, 0
  %.fca.1.insert = insertvalue { i64, i64 } %.fca.0.insert, i64 %.sroa.3.1, 1
  ret { i64, i64 } %.fca.1.insert

80:                                               ; preds = %28, %26, %14
  %.pn.pn = phi { ptr, i32 } [ %.pn, %14 ], [ %27, %26 ], [ %29, %28 ]
  call void @_ZN2cv5utils5trace7details6RegionD2Ev(ptr noundef nonnull align 8 dereferenceable(12) %2) #20
  resume { ptr, i32 } %.pn.pn
}